; Function Attrs: mustprogress uwtable
define noundef i64 @_ZNK6google8protobuf8compiler26CodeGeneratorResponse_File12ByteSizeLongEv(ptr noundef nonnull align 8 dereferenceable(56) %this) unnamed_addr #3 align 2 personality ptr @__gxx_personality_v0 {
entry:
  %0 = getelementptr inbounds i8, ptr %this, i64 16
  %1 = load i32, ptr %0, align 8
  %and = and i32 %1, 15
  %tobool.not = icmp eq i32 %and, 0
  br i1 %tobool.not, label %if.end31, label %if.then

if.then:                                          ; preds = %entry
  %and2 = and i32 %1, 1
  %tobool3.not = icmp eq i32 %and2, 0
  br i1 %tobool3.not, label %if.end, label %if.then4

if.then4:                                         ; preds = %if.then
  %name_.i = getelementptr inbounds i8, ptr %this, i64 24
  %2 = load ptr, ptr %name_.i, align 8
  %3 = ptrtoint ptr %2 to i64
  %and.i.i = and i64 %3, -4
  %4 = inttoptr i64 %and.i.i to ptr
  %call.i = tail call noundef i64 @_ZNKSt7__cxx1112basic_stringIcSt11char_traitsIcESaIcEE4sizeEv(ptr noundef nonnull align 8 dereferenceable(32) %4) #18
  %conv.i.i = trunc i64 %call.i to i32
  %or.i.i.i = or i32 %conv.i.i, 1
  %5 = tail call noundef i32 @llvm.ctlz.i32(i32 %or.i.i.i, i1 true), !range !6
  %sub.i.i.i = xor i32 %5, 31
  %mul.i.i.i = mul nuw nsw i32 %sub.i.i.i, 9
  %add.i.i.i = add nuw nsw i32 %mul.i.i.i, 73
  %div1.i.i.i = lshr i32 %add.i.i.i, 6
  %conv.i.i.i = zext nneg i32 %div1.i.i.i to i64
  %add.i.i = add i64 %call.i, 1
  %add = add i64 %add.i.i, %conv.i.i.i
  br label %if.end

if.end:                                           ; preds = %if.then4, %if.then
  %total_size.0 = phi i64 [ %add, %if.then4 ], [ 0, %if.then ]
  %and8 = and i32 %1, 2
  %tobool9.not = icmp eq i32 %and8, 0
  br i1 %tobool9.not, label %if.end15, label %if.then10

if.then10:                                        ; preds = %if.end
  %insertion_point_.i = getelementptr inbounds i8, ptr %this, i64 32
  %6 = load ptr, ptr %insertion_point_.i, align 8
  %7 = ptrtoint ptr %6 to i64
  %and.i.i9 = and i64 %7, -4
  %8 = inttoptr i64 %and.i.i9 to ptr
  %call.i10 = tail call noundef i64 @_ZNKSt7__cxx1112basic_stringIcSt11char_traitsIcESaIcEE4sizeEv(ptr noundef nonnull align 8 dereferenceable(32) %8) #18
  %conv.i.i11 = trunc i64 %call.i10 to i32
  %or.i.i.i12 = or i32 %conv.i.i11, 1
  %9 = tail call noundef i32 @llvm.ctlz.i32(i32 %or.i.i.i12, i1 true), !range !6
  %sub.i.i.i13 = xor i32 %9, 31
  %mul.i.i.i14 = mul nuw nsw i32 %sub.i.i.i13, 9
  %add.i.i.i15 = add nuw nsw i32 %mul.i.i.i14, 73
  %div1.i.i.i16 = lshr i32 %add.i.i.i15, 6
  %conv.i.i.i17 = zext nneg i32 %div1.i.i.i16 to i64
  %add.i.i18 = add i64 %total_size.0, 1
  %add13 = add i64 %add.i.i18, %call.i10
  %add14 = add i64 %add13, %conv.i.i.i17
  br label %if.end15

if.end15:                                         ; preds = %if.then10, %if.end
  %total_size.1 = phi i64 [ %add14, %if.then10 ], [ %total_size.0, %if.end ]
  %and16 = and i32 %1, 4
  %tobool17.not = icmp eq i32 %and16, 0
  br i1 %tobool17.not, label %if.end23, label %if.then18

if.then18:                                        ; preds = %if.end15
  %content_.i = getelementptr inbounds i8, ptr %this, i64 40
  %10 = load ptr, ptr %content_.i, align 8
  %11 = ptrtoint ptr %10 to i64
  %and.i.i19 = and i64 %11, -4
  %12 = inttoptr i64 %and.i.i19 to ptr
  %call.i20 = tail call noundef i64 @_ZNKSt7__cxx1112basic_stringIcSt11char_traitsIcESaIcEE4sizeEv(ptr noundef nonnull align 8 dereferenceable(32) %12) #18
  %conv.i.i21 = trunc i64 %call.i20 to i32
  %or.i.i.i22 = or i32 %conv.i.i21, 1
  %13 = tail call noundef i32 @llvm.ctlz.i32(i32 %or.i.i.i22, i1 true), !range !6
  %sub.i.i.i23 = xor i32 %13, 31
  %mul.i.i.i24 = mul nuw nsw i32 %sub.i.i.i23, 9
  %add.i.i.i25 = add nuw nsw i32 %mul.i.i.i24, 73
  %div1.i.i.i26 = lshr i32 %add.i.i.i25, 6
  %conv.i.i.i27 = zext nneg i32 %div1.i.i.i26 to i64
  %add.i.i28 = add i64 %total_size.1, 1
  %add21 = add i64 %add.i.i28, %call.i20
  %add22 = add i64 %add21, %conv.i.i.i27
  br label %if.end23

if.end23:                                         ; preds = %if.then18, %if.end15
  %total_size.2 = phi i64 [ %add22, %if.then18 ], [ %total_size.1, %if.end15 ]
  %and24 = and i32 %1, 8
  %tobool25.not = icmp eq i32 %and24, 0
  br i1 %tobool25.not, label %if.end31, label %if.then26

if.then26:                                        ; preds = %if.end23
  %generated_code_info_ = getelementptr inbounds i8, ptr %this, i64 48
  %14 = load ptr, ptr %generated_code_info_, align 8
  %call.i29 = tail call noundef i64 @_ZNK6google8protobuf17GeneratedCodeInfo12ByteSizeLongEv(ptr noundef nonnull align 8 dereferenceable(48) %14)
  %conv.i.i30 = trunc i64 %call.i29 to i32
  %or.i.i.i31 = or i32 %conv.i.i30, 1
  %15 = tail call noundef i32 @llvm.ctlz.i32(i32 %or.i.i.i31, i1 true), !range !6
  %sub.i.i.i32 = xor i32 %15, 31
  %mul.i.i.i33 = mul nuw nsw i32 %sub.i.i.i32, 9
  %add.i.i.i34 = add nuw nsw i32 %mul.i.i.i33, 73
  %div1.i.i.i35 = lshr i32 %add.i.i.i34, 6
  %conv.i.i.i36 = zext nneg i32 %div1.i.i.i35 to i64
  %add.i.i37 = add i64 %total_size.2, 2
  %add28 = add i64 %add.i.i37, %call.i29
  %add29 = add i64 %add28, %conv.i.i.i36
  br label %if.end31

if.end31:                                         ; preds = %if.end23, %if.then26, %entry
  %total_size.3 = phi i64 [ %add29, %if.then26 ], [ %total_size.2, %if.end23 ], [ 0, %entry ]
  %_cached_size_ = getelementptr inbounds i8, ptr %this, i64 20
  %call32 = tail call noundef i64 @_ZNK6google8protobuf7Message29MaybeComputeUnknownFieldsSizeEmPNS0_8internal10CachedSizeE(ptr noundef nonnull align 8 dereferenceable(16) %this, i64 noundef %total_size.3, ptr noundef nonnull %_cached_size_)
  ret i64 %call32
}